target datalayout = "e-m:e-p270:32:32-p271:32:32-p272:64:64-i64:64-i128:128-f80:128-n8:16:32:64-S128"
target triple = "x86_64-pc-linux-gnu"

%struct.Vec_Int_t_ = type { i32, i32, ptr }
%struct.Mfs_Man_t_ = type { ptr, ptr, ptr, ptr, i32, ptr, ptr, ptr, ptr, ptr, ptr, ptr, ptr, i32, i32, i32, i32, ptr, ptr, i32, i32, i32, ptr, ptr, ptr, ptr, ptr, ptr, ptr, i32, i32, ptr, i32, i32, i32, [128 x i32], i32, i32, i32, i32, i32, i32, i32, i32, i32, i32, i32, i32, i32, i32, double, i32, i32, i32, i32, float, float, i64, i64, i64, i64, i64, i64, i64, i64 }
%struct.Vec_Ptr_t_ = type { i32, i32, ptr }
%struct.Mfs_Par_t_ = type { i32, i32, i32, i32, i32, i32, i32, i32, i32, i32, i32, i32, i32, i32, i32, i32, i32 }
%struct.sat_solver_t = type { i32, i32, i32, i32, %struct.Sat_Mem_t_, i32, i32, ptr, ptr, i32, i32, i32, i32, i32, i64, i64, i64, ptr, ptr, i32, i32, %struct.veci_t, ptr, i32, ptr, ptr, ptr, ptr, ptr, ptr, ptr, ptr, %struct.veci_t, %struct.veci_t, %struct.veci_t, %struct.veci_t, ptr, %struct.veci_t, i32, i32, i32, double, double, i32, i32, i32, %struct.stats_t, i32, i32, i32, i32, i32, i64, i64, i64, %struct.veci_t, ptr, i32, i32, i32, %struct.veci_t, %struct.veci_t, i32, i32, i32, ptr, ptr, i32, ptr, i32, i32, %struct.veci_t, %struct.veci_t, %struct.veci_t, ptr, ptr, i32, ptr }
%struct.Sat_Mem_t_ = type { [2 x i32], [2 x i32], [2 x i32], [2 x i32], i32, i32, i32, i32, ptr }
%struct.stats_t = type { i32, i32, i32, i64, i64, i64, i64, i64, i64, i64 }
%struct.veci_t = type { i32, i32, ptr }

@.str = private unnamed_addr constant [3 x i8] c"U \00", align 1
@.str.1 = private unnamed_addr constant [3 x i8] c"T \00", align 1
@.str.2 = private unnamed_addr constant [3 x i8] c"S \00", align 1

; Function Attrs: inlinehint nounwind uwtable
define internal void @Abc_InfoXorBit(ptr noundef %0, i32 noundef %1) #2 {
  %3 = alloca ptr, align 8
  %4 = alloca i32, align 4
  store ptr %0, ptr %3, align 8, !tbaa !58
  store i32 %1, ptr %4, align 4, !tbaa !21
  %5 = load i32, ptr %4, align 4, !tbaa !21
  %6 = and i32 %5, 31
  %7 = shl i32 1, %6
  %8 = load ptr, ptr %3, align 8, !tbaa !58
  %9 = load i32, ptr %4, align 4, !tbaa !21
  %10 = ashr i32 %9, 5
  %11 = sext i32 %10 to i64
  %12 = getelementptr inbounds i32, ptr %8, i64 %11
  %13 = load i32, ptr %12, align 4, !tbaa !21
  %14 = xor i32 %13, %7
  store i32 %14, ptr %12, align 4, !tbaa !21
  ret void
}

; Function Attrs: inlinehint nounwind uwtable
define internal i32 @sat_solver_var_value(ptr noundef %0, i32 noundef %1) #2 {
  %3 = alloca ptr, align 8
  %4 = alloca i32, align 4
  store ptr %0, ptr %3, align 8, !tbaa !73
  store i32 %1, ptr %4, align 4, !tbaa !21
  %5 = load ptr, ptr %3, align 8, !tbaa !73
  %6 = getelementptr inbounds nuw %struct.sat_solver_t, ptr %5, i32 0, i32 36
  %7 = load ptr, ptr %6, align 8, !tbaa !74
  %8 = load i32, ptr %4, align 4, !tbaa !21
  %9 = sext i32 %8 to i64
  %10 = getelementptr inbounds i32, ptr %7, i64 %9
  %11 = load i32, ptr %10, align 4, !tbaa !21
  %12 = icmp eq i32 %11, 1
  %13 = zext i1 %12 to i32
  ret i32 %13
}

; Function Attrs: inlinehint nounwind uwtable
define internal ptr @Vec_PtrEntry(ptr noundef %0, i32 noundef %1) #2 {
  %3 = alloca ptr, align 8
  %4 = alloca i32, align 4
  store ptr %0, ptr %3, align 8, !tbaa !10
  store i32 %1, ptr %4, align 4, !tbaa !21
  %5 = load ptr, ptr %3, align 8, !tbaa !10
  %6 = getelementptr inbounds nuw %struct.Vec_Ptr_t_, ptr %5, i32 0, i32 2
  %7 = load ptr, ptr %6, align 8, !tbaa !40
  %8 = load i32, ptr %4, align 4, !tbaa !21
  %9 = sext i32 %8 to i64
  %10 = getelementptr inbounds ptr, ptr %7, i64 %9
  %11 = load ptr, ptr %10, align 8, !tbaa !41
  ret ptr %11
}

; Function Attrs: inlinehint nounwind uwtable
define internal i32 @Vec_IntEntry(ptr noundef %0, i32 noundef %1) #2 {
  %3 = alloca ptr, align 8
  %4 = alloca i32, align 4
  store ptr %0, ptr %3, align 8, !tbaa !70
  store i32 %1, ptr %4, align 4, !tbaa !21
  %5 = load ptr, ptr %3, align 8, !tbaa !70
  %6 = getelementptr inbounds nuw %struct.Vec_Int_t_, ptr %5, i32 0, i32 2
  %7 = load ptr, ptr %6, align 8, !tbaa !72
  %8 = load i32, ptr %4, align 4, !tbaa !21
  %9 = sext i32 %8 to i64
  %10 = getelementptr inbounds i32, ptr %7, i64 %9
  %11 = load i32, ptr %10, align 4, !tbaa !21
  ret i32 %11
}

; Function Attrs: inlinehint nounwind uwtable
define internal i32 @Vec_IntSize(ptr noundef %0) #2 {
  %2 = alloca ptr, align 8
  store ptr %0, ptr %2, align 8, !tbaa !70
  %3 = load ptr, ptr %2, align 8, !tbaa !70
  %4 = getelementptr inbounds nuw %struct.Vec_Int_t_, ptr %3, i32 0, i32 1
  %5 = load i32, ptr %4, align 4, !tbaa !71
  ret i32 %5
}

; Function Attrs: nounwind uwtable
define i32 @Abc_NtkMfsTryResubOnce(ptr noundef %0, ptr noundef %1, i32 noundef %2) #0 {
  %4 = alloca i32, align 4
  %5 = alloca ptr, align 8
  %6 = alloca ptr, align 8
  %7 = alloca i32, align 4
  %8 = alloca i32, align 4
  %9 = alloca ptr, align 8
  %10 = alloca i32, align 4
  %11 = alloca i32, align 4
  %12 = alloca i32, align 4
  %13 = alloca i32, align 4
  %14 = alloca i32, align 4
  store ptr %0, ptr %5, align 8, !tbaa !3
  store ptr %1, ptr %6, align 8, !tbaa !58
  store i32 %2, ptr %7, align 4, !tbaa !21
  call void @llvm.lifetime.start.p0(i64 4, ptr %8) #8
  store i32 0, ptr %8, align 4, !tbaa !21
  call void @llvm.lifetime.start.p0(i64 8, ptr %9) #8
  call void @llvm.lifetime.start.p0(i64 4, ptr %10) #8
  call void @llvm.lifetime.start.p0(i64 4, ptr %11) #8
  store i32 -1, ptr %11, align 4, !tbaa !21
  call void @llvm.lifetime.start.p0(i64 4, ptr %12) #8
  call void @llvm.lifetime.start.p0(i64 4, ptr %13) #8
  %15 = load ptr, ptr %5, align 8, !tbaa !3
  %16 = getelementptr inbounds nuw %struct.Mfs_Man_t_, ptr %15, i32 0, i32 15
  %17 = load i32, ptr %16, align 8, !tbaa !59
  %18 = add nsw i32 %17, 1
  store i32 %18, ptr %16, align 8, !tbaa !59
  %19 = load ptr, ptr %5, align 8, !tbaa !3
  %20 = getelementptr inbounds nuw %struct.Mfs_Man_t_, ptr %19, i32 0, i32 24
  %21 = load ptr, ptr %20, align 8, !tbaa !60
  %22 = load ptr, ptr %6, align 8, !tbaa !58
  %23 = load ptr, ptr %6, align 8, !tbaa !58
  %24 = load i32, ptr %7, align 4, !tbaa !21
  %25 = sext i32 %24 to i64
  %26 = getelementptr inbounds i32, ptr %23, i64 %25
  %27 = load ptr, ptr %5, align 8, !tbaa !3
  %28 = getelementptr inbounds nuw %struct.Mfs_Man_t_, ptr %27, i32 0, i32 0
  %29 = load ptr, ptr %28, align 8, !tbaa !61
  %30 = getelementptr inbounds nuw %struct.Mfs_Par_t_, ptr %29, i32 0, i32 5
  %31 = load i32, ptr %30, align 4, !tbaa !62
  %32 = sext i32 %31 to i64
  %33 = call i32 @sat_solver_solve(ptr noundef %21, ptr noundef %22, ptr noundef %26, i64 noundef %32, i64 noundef 0, i64 noundef 0, i64 noundef 0)
  store i32 %33, ptr %10, align 4, !tbaa !21
  %34 = load i32, ptr %10, align 4, !tbaa !21
  %35 = icmp ne i32 %34, 0
  br i1 %35, label %36, label %40

36:                                               ; preds = %3
  %37 = load i32, ptr %11, align 4, !tbaa !21
  %38 = icmp ne i32 %37, -1
  br i1 %38, label %39, label %40

39:                                               ; preds = %36
  br label %40

40:                                               ; preds = %39, %36, %3
  %41 = load i32, ptr %10, align 4, !tbaa !21
  %42 = icmp eq i32 %41, -1
  br i1 %42, label %43, label %49

43:                                               ; preds = %40
  %44 = load i32, ptr %8, align 4, !tbaa !21
  %45 = icmp ne i32 %44, 0
  br i1 %45, label %46, label %48

46:                                               ; preds = %43
  %47 = call i32 (ptr, ...) @printf(ptr noundef @.str)
  br label %48

48:                                               ; preds = %46, %43
  store i32 1, ptr %4, align 4
  store i32 1, ptr %14, align 4
  br label %113

49:                                               ; preds = %40
  %50 = load i32, ptr %10, align 4, !tbaa !21
  %51 = icmp ne i32 %50, 1
  br i1 %51, label %52, label %62

52:                                               ; preds = %49
  %53 = load i32, ptr %8, align 4, !tbaa !21
  %54 = icmp ne i32 %53, 0
  br i1 %54, label %55, label %57

55:                                               ; preds = %52
  %56 = call i32 (ptr, ...) @printf(ptr noundef @.str.1)
  br label %57

57:                                               ; preds = %55, %52
  %58 = load ptr, ptr %5, align 8, !tbaa !3
  %59 = getelementptr inbounds nuw %struct.Mfs_Man_t_, ptr %58, i32 0, i32 46
  %60 = load i32, ptr %59, align 4, !tbaa !64
  %61 = add nsw i32 %60, 1
  store i32 %61, ptr %59, align 4, !tbaa !64
  store i32 -1, ptr %4, align 4
  store i32 1, ptr %14, align 4
  br label %113

62:                                               ; preds = %49
  %63 = load i32, ptr %8, align 4, !tbaa !21
  %64 = icmp ne i32 %63, 0
  br i1 %64, label %65, label %67

65:                                               ; preds = %62
  %66 = call i32 (ptr, ...) @printf(ptr noundef @.str.2)
  br label %67

67:                                               ; preds = %65, %62
  %68 = load ptr, ptr %5, align 8, !tbaa !3
  %69 = getelementptr inbounds nuw %struct.Mfs_Man_t_, ptr %68, i32 0, i32 16
  %70 = load i32, ptr %69, align 4, !tbaa !65
  %71 = add nsw i32 %70, 1
  store i32 %71, ptr %69, align 4, !tbaa !65
  store i32 0, ptr %13, align 4, !tbaa !21
  br label %72

72:                                               ; preds = %105, %67
  %73 = load i32, ptr %13, align 4, !tbaa !21
  %74 = load ptr, ptr %5, align 8, !tbaa !3
  %75 = getelementptr inbounds nuw %struct.Mfs_Man_t_, ptr %74, i32 0, i32 11
  %76 = load ptr, ptr %75, align 8, !tbaa !66
  %77 = call i32 @Vec_IntSize(ptr noundef %76)
  %78 = icmp slt i32 %73, %77
  br i1 %78, label %79, label %85

79:                                               ; preds = %72
  %80 = load ptr, ptr %5, align 8, !tbaa !3
  %81 = getelementptr inbounds nuw %struct.Mfs_Man_t_, ptr %80, i32 0, i32 11
  %82 = load ptr, ptr %81, align 8, !tbaa !66
  %83 = load i32, ptr %13, align 4, !tbaa !21
  %84 = call i32 @Vec_IntEntry(ptr noundef %82, i32 noundef %83)
  store i32 %84, ptr %12, align 4, !tbaa !21
  br label %85

85:                                               ; preds = %79, %72
  %86 = phi i1 [ false, %72 ], [ true, %79 ]
  br i1 %86, label %87, label %108

87:                                               ; preds = %85
  %88 = load ptr, ptr %5, align 8, !tbaa !3
  %89 = getelementptr inbounds nuw %struct.Mfs_Man_t_, ptr %88, i32 0, i32 12
  %90 = load ptr, ptr %89, align 8, !tbaa !67
  %91 = load i32, ptr %13, align 4, !tbaa !21
  %92 = call ptr @Vec_PtrEntry(ptr noundef %90, i32 noundef %91)
  store ptr %92, ptr %9, align 8, !tbaa !58
  %93 = load ptr, ptr %5, align 8, !tbaa !3
  %94 = getelementptr inbounds nuw %struct.Mfs_Man_t_, ptr %93, i32 0, i32 24
  %95 = load ptr, ptr %94, align 8, !tbaa !60
  %96 = load i32, ptr %12, align 4, !tbaa !21
  %97 = call i32 @sat_solver_var_value(ptr noundef %95, i32 noundef %96)
  %98 = icmp ne i32 %97, 0
  br i1 %98, label %104, label %99

99:                                               ; preds = %87
  %100 = load ptr, ptr %9, align 8, !tbaa !58
  %101 = load ptr, ptr %5, align 8, !tbaa !3
  %102 = getelementptr inbounds nuw %struct.Mfs_Man_t_, ptr %101, i32 0, i32 14
  %103 = load i32, ptr %102, align 4, !tbaa !68
  call void @Abc_InfoXorBit(ptr noundef %100, i32 noundef %103)
  br label %104

104:                                              ; preds = %99, %87
  br label %105

105:                                              ; preds = %104
  %106 = load i32, ptr %13, align 4, !tbaa !21
  %107 = add nsw i32 %106, 1
  store i32 %107, ptr %13, align 4, !tbaa !21
  br label %72, !llvm.loop !69

108:                                              ; preds = %85
  %109 = load ptr, ptr %5, align 8, !tbaa !3
  %110 = getelementptr inbounds nuw %struct.Mfs_Man_t_, ptr %109, i32 0, i32 14
  %111 = load i32, ptr %110, align 4, !tbaa !68
  %112 = add nsw i32 %111, 1
  store i32 %112, ptr %110, align 4, !tbaa !68
  store i32 0, ptr %4, align 4
  store i32 1, ptr %14, align 4
  br label %113

113:                                              ; preds = %108, %57, %48
  call void @llvm.lifetime.end.p0(i64 4, ptr %13) #8
  call void @llvm.lifetime.end.p0(i64 4, ptr %12) #8
  call void @llvm.lifetime.end.p0(i64 4, ptr %11) #8
  call void @llvm.lifetime.end.p0(i64 4, ptr %10) #8
  call void @llvm.lifetime.end.p0(i64 8, ptr %9) #8
  call void @llvm.lifetime.end.p0(i64 4, ptr %8) #8
  %114 = load i32, ptr %4, align 4
  ret i32 %114
}