; Function Attrs: nounwind uwtable
define range(i32 -1, 2) i32 @Abc_NtkMfsTryResubOnce(ptr noundef captures(none) %0, ptr noundef %1, i32 noundef %2) local_unnamed_addr #0 {
  %4 = getelementptr inbounds nuw i8, ptr %0, i64 112
  %5 = load i32, ptr %4, align 8, !tbaa !35
  %6 = add nsw i32 %5, 1
  store i32 %6, ptr %4, align 8, !tbaa !35
  %7 = getelementptr inbounds nuw i8, ptr %0, i64 168
  %8 = load ptr, ptr %7, align 8, !tbaa !36
  %9 = sext i32 %2 to i64
  %10 = getelementptr inbounds i32, ptr %1, i64 %9
  %11 = load ptr, ptr %0, align 8, !tbaa !37
  %12 = getelementptr inbounds nuw i8, ptr %11, i64 20
  %13 = load i32, ptr %12, align 4, !tbaa !38
  %14 = sext i32 %13 to i64
  %15 = tail call i32 @sat_solver_solve(ptr noundef %8, ptr noundef %1, ptr noundef %10, i64 noundef %14, i64 noundef 0, i64 noundef 0, i64 noundef 0) #11
  switch i32 %15, label %.sink.split [
    i32 -1, label %54
    i32 1, label %16
  ]

16:                                               ; preds = %3
  %17 = getelementptr inbounds nuw i8, ptr %0, i64 116
  %18 = load i32, ptr %17, align 4, !tbaa !40
  %19 = add nsw i32 %18, 1
  store i32 %19, ptr %17, align 4, !tbaa !40
  %20 = getelementptr inbounds nuw i8, ptr %0, i64 88
  %21 = load ptr, ptr %20, align 8, !tbaa !41
  %22 = getelementptr i8, ptr %21, i64 4
  %.val3134 = load i32, ptr %22, align 4, !tbaa !42
  %23 = icmp sgt i32 %.val3134, 0
  br i1 %23, label %.lr.ph, label %.sink.split

.lr.ph:                                           ; preds = %16
  %24 = getelementptr i8, ptr %21, i64 8
  %.val32 = load ptr, ptr %24, align 8, !tbaa !43
  %25 = load ptr, ptr %7, align 8, !tbaa !36
  %26 = getelementptr i8, ptr %25, i64 328
  %.val33 = load ptr, ptr %26, align 8, !tbaa !44
  %27 = getelementptr inbounds nuw i8, ptr %0, i64 96
  %28 = getelementptr inbounds nuw i8, ptr %0, i64 108
  br label %29

29:                                               ; preds = %.lr.ph, %48
  %.val3137 = phi i32 [ %.val3134, %.lr.ph ], [ %.val31, %48 ]
  %indvars.iv = phi i64 [ 0, %.lr.ph ], [ %indvars.iv.next, %48 ]
  %30 = getelementptr inbounds nuw i32, ptr %.val32, i64 %indvars.iv
  %31 = load i32, ptr %30, align 4, !tbaa !56
  %32 = sext i32 %31 to i64
  %33 = getelementptr inbounds i32, ptr %.val33, i64 %32
  %34 = load i32, ptr %33, align 4, !tbaa !56
  %.not = icmp eq i32 %34, 1
  br i1 %.not, label %48, label %35

35:                                               ; preds = %29
  %36 = load ptr, ptr %27, align 8, !tbaa !57
  %37 = getelementptr i8, ptr %36, i64 8
  %.val = load ptr, ptr %37, align 8, !tbaa !16
  %38 = getelementptr inbounds nuw ptr, ptr %.val, i64 %indvars.iv
  %39 = load ptr, ptr %38, align 8, !tbaa !17
  %40 = load i32, ptr %28, align 4, !tbaa !58
  %41 = and i32 %40, 31
  %42 = shl nuw i32 1, %41
  %43 = ashr i32 %40, 5
  %44 = sext i32 %43 to i64
  %45 = getelementptr inbounds i32, ptr %39, i64 %44
  %46 = load i32, ptr %45, align 4, !tbaa !56
  %47 = xor i32 %42, %46
  store i32 %47, ptr %45, align 4, !tbaa !56
  %.val31.pre = load i32, ptr %22, align 4, !tbaa !42
  br label %48

48:                                               ; preds = %29, %35
  %.val31 = phi i32 [ %.val3137, %29 ], [ %.val31.pre, %35 ]
  %indvars.iv.next = add nuw nsw i64 %indvars.iv, 1
  %49 = sext i32 %.val31 to i64
  %50 = icmp slt i64 %indvars.iv.next, %49
  br i1 %50, label %29, label %.sink.split, !llvm.loop !59

.sink.split:                                      ; preds = %48, %16, %3
  %.sink41 = phi i64 [ 788, %3 ], [ 108, %16 ], [ 108, %48 ]
  %.028.ph = phi i32 [ -1, %3 ], [ 0, %16 ], [ 0, %48 ]
  %51 = getelementptr inbounds nuw i8, ptr %0, i64 %.sink41
  %52 = load i32, ptr %51, align 4, !tbaa !56
  %53 = add nsw i32 %52, 1
  store i32 %53, ptr %51, align 4, !tbaa !56
  br label %54

54:                                               ; preds = %.sink.split, %3
  %.028 = phi i32 [ 1, %3 ], [ %.028.ph, %.sink.split ]
  ret i32 %.028
}